; ModuleID = '40/2840.c'
source_filename = "40/2840.c"
target datalayout = "e-m:e-p270:32:32-p271:32:32-p272:64:64-i64:64-f80:128-n8:16:32:64-S128"
target triple = "x86_64-pc-linux-gnu"

@.str = private unnamed_addr constant [20 x i8] c"%lf %lf %lf %lf %lf\00", align 1
@.str.1 = private unnamed_addr constant [14 x i8] c"Invalid input\00", align 1
@.str.2 = private unnamed_addr constant [7 x i8] c"%.4lf\0A\00", align 1

; Function Attrs: noinline nounwind uwtable
define dso_local i32 @main() #0 {
  %1 = alloca i32, align 4
  %2 = alloca double, align 8
  %3 = alloca double, align 8
  %4 = alloca double, align 8
  %5 = alloca double, align 8
  %6 = alloca double, align 8
  %7 = alloca double, align 8
  %8 = alloca double, align 8
  %9 = alloca double, align 8
  store i32 0, i32* %1, align 4
  %10 = call i32 (i8*, ...) @__isoc99_scanf(i8* getelementptr inbounds ([20 x i8], [20 x i8]* @.str, i64 0, i64 0), double* %4, double* %5, double* %6, double* %7, double* %8)
  %11 = load double, double* %8, align 8
  %12 = fdiv double %11, 1.800000e+02
  %13 = fmul double %12, 1.000000e+02
  %14 = fdiv double %13, 2.000000e+00
  store double %14, double* %9, align 8
  %15 = load double, double* %4, align 8
  %16 = load double, double* %5, align 8
  %17 = fadd double %15, %16
  %18 = load double, double* %6, align 8
  %19 = fadd double %17, %18
  %20 = load double, double* %7, align 8
  %21 = fadd double %19, %20
  %22 = fdiv double %21, 2.000000e+00
  store double %22, double* %2, align 8
  %23 = load double, double* %2, align 8
  %24 = load double, double* %4, align 8
  %25 = fsub double %23, %24
  %26 = load double, double* %2, align 8
  %27 = load double, double* %5, align 8
  %28 = fsub double %26, %27
  %29 = fmul double %25, %28
  %30 = load double, double* %2, align 8
  %31 = load double, double* %6, align 8
  %32 = fsub double %30, %31
  %33 = fmul double %29, %32
  %34 = load double, double* %2, align 8
  %35 = load double, double* %7, align 8
  %36 = fsub double %34, %35
  %37 = fmul double %33, %36
  %38 = load double, double* %4, align 8
  %39 = load double, double* %5, align 8
  %40 = fmul double %38, %39
  %41 = load double, double* %6, align 8
  %42 = fmul double %40, %41
  %43 = load double, double* %7, align 8
  %44 = fmul double %42, %43
  %45 = load double, double* %9, align 8
  %46 = call double @cos(double %45) #3
  %47 = fmul double %44, %46
  %48 = load double, double* %9, align 8
  %49 = call double @cos(double %48) #3
  %50 = fmul double %47, %49
  %51 = fsub double %37, %50
  %52 = fcmp olt double %51, 0.000000e+00
  br i1 %52, label %53, label %55

53:                                               ; preds = %0
  %54 = call i32 (i8*, ...) @printf(i8* getelementptr inbounds ([14 x i8], [14 x i8]* @.str.1, i64 0, i64 0))
  br label %64

55:                                               ; preds = %0
  %56 = load double, double* %4, align 8
  %57 = load double, double* %5, align 8
  %58 = load double, double* %6, align 8
  %59 = load double, double* %7, align 8
  %60 = load double, double* %9, align 8
  %61 = call double @kaifang(double %56, double %57, double %58, double %59, double %60)
  store double %61, double* %3, align 8
  %62 = load double, double* %3, align 8
  %63 = call i32 (i8*, ...) @printf(i8* getelementptr inbounds ([7 x i8], [7 x i8]* @.str.2, i64 0, i64 0), double %62)
  br label %64

64:                                               ; preds = %55, %53
  ret i32 0
}

declare dso_local i32 @__isoc99_scanf(i8*, ...) #1

; Function Attrs: nounwind
declare dso_local double @cos(double) #2

declare dso_local i32 @printf(i8*, ...) #1

; Function Attrs: noinline nounwind uwtable
define dso_local double @kaifang(double %0, double %1, double %2, double %3, double %4) #0 {
  %6 = alloca double, align 8
  %7 = alloca double, align 8
  %8 = alloca double, align 8
  %9 = alloca double, align 8
  %10 = alloca double, align 8
  %11 = alloca double, align 8
  %12 = alloca double, align 8
  store double %0, double* %6, align 8
  store double %1, double* %7, align 8
  store double %2, double* %8, align 8
  store double %3, double* %9, align 8
  store double %4, double* %10, align 8
  %13 = load double, double* %6, align 8
  %14 = load double, double* %7, align 8
  %15 = fadd double %13, %14
  %16 = load double, double* %8, align 8
  %17 = fadd double %15, %16
  %18 = load double, double* %9, align 8
  %19 = fadd double %17, %18
  %20 = fdiv double %19, 2.000000e+00
  store double %20, double* %11, align 8
  br label %21

21:                                               ; preds = %5
  %22 = load double, double* %11, align 8
  %23 = load double, double* %6, align 8
  %24 = fsub double %22, %23
  %25 = load double, double* %11, align 8
  %26 = load double, double* %7, align 8
  %27 = fsub double %25, %26
  %28 = fmul double %24, %27
  %29 = load double, double* %11, align 8
  %30 = load double, double* %8, align 8
  %31 = fsub double %29, %30
  %32 = fmul double %28, %31
  %33 = load double, double* %11, align 8
  %34 = load double, double* %9, align 8
  %35 = fsub double %33, %34
  %36 = fmul double %32, %35
  %37 = load double, double* %6, align 8
  %38 = load double, double* %7, align 8
  %39 = fmul double %37, %38
  %40 = load double, double* %8, align 8
  %41 = fmul double %39, %40
  %42 = load double, double* %9, align 8
  %43 = fmul double %41, %42
  %44 = load double, double* %10, align 8
  %45 = call double @cos(double %44) #3
  %46 = fmul double %43, %45
  %47 = load double, double* %10, align 8
  %48 = call double @cos(double %47) #3
  %49 = fmul double %46, %48
  %50 = fsub double %36, %49
  %51 = fcmp oge double %50, 0.000000e+00
  br i1 %51, label %52, label %83

52:                                               ; preds = %21
  %53 = load double, double* %11, align 8
  %54 = load double, double* %6, align 8
  %55 = fsub double %53, %54
  %56 = load double, double* %11, align 8
  %57 = load double, double* %7, align 8
  %58 = fsub double %56, %57
  %59 = fmul double %55, %58
  %60 = load double, double* %11, align 8
  %61 = load double, double* %8, align 8
  %62 = fsub double %60, %61
  %63 = fmul double %59, %62
  %64 = load double, double* %11, align 8
  %65 = load double, double* %9, align 8
  %66 = fsub double %64, %65
  %67 = fmul double %63, %66
  %68 = load double, double* %6, align 8
  %69 = load double, double* %7, align 8
  %70 = fmul double %68, %69
  %71 = load double, double* %8, align 8
  %72 = fmul double %70, %71
  %73 = load double, double* %9, align 8
  %74 = fmul double %72, %73
  %75 = load double, double* %10, align 8
  %76 = call double @cos(double %75) #3
  %77 = fmul double %74, %76
  %78 = load double, double* %10, align 8
  %79 = call double @cos(double %78) #3
  %80 = fmul double %77, %79
  %81 = fsub double %67, %80
  %82 = call double @sqrt(double %81) #3
  store double %82, double* %12, align 8
  br label %83

83:                                               ; preds = %52, %21
  %84 = load double, double* %12, align 8
  ret double %84
}

; Function Attrs: nounwind
declare dso_local double @sqrt(double) #2


!llvm.module.flags = !{!0}
!llvm.ident = !{!1}

!0 = !{i32 1, !"wchar_size", i32 4}
!1 = !{!"clang version 10.0.0-4ubuntu1 "}
