; ModuleID = 'source-C-CXX/39/2840.c'
source_filename = "source-C-CXX/39/2840.c"
target datalayout = "e-m:e-p270:32:32-p271:32:32-p272:64:64-i64:64-f80:128-n8:16:32:64-S128"
target triple = "x86_64-pc-linux-gnu"

@.str = private unnamed_addr constant [20 x i8] c"%lf %lf %lf %lf %lf\00", align 1
@.str.1 = private unnamed_addr constant [14 x i8] c"Invalid input\00", align 1
@.str.2 = private unnamed_addr constant [7 x i8] c"%.4lf\0A\00", align 1

; Function Attrs: nofree nounwind sspstrong uwtable
define dso_local i32 @main() local_unnamed_addr #0 {
  %1 = alloca double, align 8
  %2 = alloca double, align 8
  %3 = alloca double, align 8
  %4 = alloca double, align 8
  %5 = alloca double, align 8
  %6 = bitcast double* %1 to i8*
  call void @llvm.lifetime.start.p0i8(i64 8, i8* nonnull %6) #5
  %7 = bitcast double* %2 to i8*
  call void @llvm.lifetime.start.p0i8(i64 8, i8* nonnull %7) #5
  %8 = bitcast double* %3 to i8*
  call void @llvm.lifetime.start.p0i8(i64 8, i8* nonnull %8) #5
  %9 = bitcast double* %4 to i8*
  call void @llvm.lifetime.start.p0i8(i64 8, i8* nonnull %9) #5
  %10 = bitcast double* %5 to i8*
  call void @llvm.lifetime.start.p0i8(i64 8, i8* nonnull %10) #5
  %11 = call i32 (i8*, ...) @__isoc99_scanf(i8* getelementptr inbounds ([20 x i8], [20 x i8]* @.str, i64 0, i64 0), double* nonnull %1, double* nonnull %2, double* nonnull %3, double* nonnull %4, double* nonnull %5)
  %12 = load double, double* %5, align 8, !tbaa !5
  %13 = fdiv double %12, 1.800000e+02
  %14 = fmul double %13, 1.000000e+02
  %15 = fmul double %14, 5.000000e-01
  %16 = load double, double* %1, align 8, !tbaa !5
  %17 = load double, double* %2, align 8, !tbaa !5
  %18 = fadd double %16, %17
  %19 = load double, double* %3, align 8, !tbaa !5
  %20 = fadd double %18, %19
  %21 = load double, double* %4, align 8, !tbaa !5
  %22 = fadd double %20, %21
  %23 = fmul double %22, 5.000000e-01
  %24 = fsub double %23, %16
  %25 = fsub double %23, %17
  %26 = fmul double %24, %25
  %27 = fsub double %23, %19
  %28 = fmul double %27, %26
  %29 = fsub double %23, %21
  %30 = fmul double %29, %28
  %31 = fmul double %16, %17
  %32 = fmul double %31, %19
  %33 = fmul double %32, %21
  %34 = call double @cos(double %15) #5
  %35 = fmul double %33, %34
  %36 = call double @cos(double %15) #5
  %37 = fmul double %35, %36
  %38 = fsub double %30, %37
  %39 = fcmp olt double %38, 0.000000e+00
  br i1 %39, label %40, label %42

40:                                               ; preds = %0
  %41 = call i32 (i8*, ...) @printf(i8* nonnull dereferenceable(1) getelementptr inbounds ([14 x i8], [14 x i8]* @.str.1, i64 0, i64 0))
  br label %77

42:                                               ; preds = %0
  %43 = load double, double* %1, align 8, !tbaa !5
  %44 = load double, double* %2, align 8, !tbaa !5
  %45 = load double, double* %3, align 8, !tbaa !5
  %46 = load double, double* %4, align 8, !tbaa !5
  %47 = fadd double %43, %44
  %48 = fadd double %47, %45
  %49 = fadd double %48, %46
  %50 = fmul double %49, 5.000000e-01
  %51 = fsub double %50, %43
  %52 = fsub double %50, %44
  %53 = fmul double %51, %52
  %54 = fsub double %50, %45
  %55 = fmul double %54, %53
  %56 = fsub double %50, %46
  %57 = fmul double %56, %55
  %58 = fmul double %43, %44
  %59 = fmul double %58, %45
  %60 = fmul double %59, %46
  %61 = call double @cos(double %15) #5
  %62 = fmul double %60, %61
  %63 = call double @cos(double %15) #5
  %64 = fmul double %62, %63
  %65 = fsub double %57, %64
  %66 = fcmp ult double %65, 0.000000e+00
  br i1 %66, label %74, label %67

67:                                               ; preds = %42
  %68 = call double @cos(double %15) #5
  %69 = fmul double %60, %68
  %70 = call double @cos(double %15) #5
  %71 = fmul double %69, %70
  %72 = fsub double %57, %71
  %73 = call double @sqrt(double %72) #5
  br label %74

74:                                               ; preds = %42, %67
  %75 = phi double [ %73, %67 ], [ undef, %42 ]
  %76 = call i32 (i8*, ...) @printf(i8* nonnull dereferenceable(1) getelementptr inbounds ([7 x i8], [7 x i8]* @.str.2, i64 0, i64 0), double %75)
  br label %77

77:                                               ; preds = %74, %40
  call void @llvm.lifetime.end.p0i8(i64 8, i8* nonnull %10) #5
  call void @llvm.lifetime.end.p0i8(i64 8, i8* nonnull %9) #5
  call void @llvm.lifetime.end.p0i8(i64 8, i8* nonnull %8) #5
  call void @llvm.lifetime.end.p0i8(i64 8, i8* nonnull %7) #5
  call void @llvm.lifetime.end.p0i8(i64 8, i8* nonnull %6) #5
  ret i32 0
}

; Function Attrs: argmemonly mustprogress nofree nosync nounwind willreturn
declare void @llvm.lifetime.start.p0i8(i64 immarg, i8* nocapture) #1

; Function Attrs: nofree nounwind
declare noundef i32 @__isoc99_scanf(i8* nocapture noundef readonly, ...) local_unnamed_addr #2

; Function Attrs: mustprogress nofree nounwind willreturn
declare double @cos(double) local_unnamed_addr #3

; Function Attrs: nofree nounwind
declare noundef i32 @printf(i8* nocapture noundef readonly, ...) local_unnamed_addr #2

; Function Attrs: mustprogress nofree nounwind sspstrong uwtable willreturn
define dso_local double @kaifang(double %0, double %1, double %2, double %3, double %4) local_unnamed_addr #4 {
  %6 = fadd double %0, %1
  %7 = fadd double %6, %2
  %8 = fadd double %7, %3
  %9 = fmul double %8, 5.000000e-01
  %10 = fsub double %9, %0
  %11 = fsub double %9, %1
  %12 = fmul double %10, %11
  %13 = fsub double %9, %2
  %14 = fmul double %13, %12
  %15 = fsub double %9, %3
  %16 = fmul double %15, %14
  %17 = fmul double %0, %1
  %18 = fmul double %17, %2
  %19 = fmul double %18, %3
  %20 = tail call double @cos(double %4) #5
  %21 = fmul double %19, %20
  %22 = tail call double @cos(double %4) #5
  %23 = fmul double %21, %22
  %24 = fsub double %16, %23
  %25 = fcmp ult double %24, 0.000000e+00
  br i1 %25, label %33, label %26

26:                                               ; preds = %5
  %27 = tail call double @cos(double %4) #5
  %28 = fmul double %19, %27
  %29 = tail call double @cos(double %4) #5
  %30 = fmul double %28, %29
  %31 = fsub double %16, %30
  %32 = tail call double @sqrt(double %31) #5
  br label %33

33:                                               ; preds = %26, %5
  %34 = phi double [ %32, %26 ], [ undef, %5 ]
  ret double %34
}

; Function Attrs: argmemonly mustprogress nofree nosync nounwind willreturn
declare void @llvm.lifetime.end.p0i8(i64 immarg, i8* nocapture) #1

; Function Attrs: mustprogress nofree nounwind willreturn
declare double @sqrt(double) local_unnamed_addr #3


!llvm.module.flags = !{!0, !1, !2, !3}
!llvm.ident = !{!4}

!0 = !{i32 1, !"wchar_size", i32 4}
!1 = !{i32 7, !"PIC Level", i32 2}
!2 = !{i32 7, !"PIE Level", i32 2}
!3 = !{i32 7, !"uwtable", i32 1}
!4 = !{!"clang version 13.0.0"}
!5 = !{!6, !6, i64 0}
!6 = !{!"double", !7, i64 0}
!7 = !{!"omnipotent char", !8, i64 0}
!8 = !{!"Simple C/C++ TBAA"}
